target datalayout = "e-m:e-p270:32:32-p271:32:32-p272:64:64-i64:64-i128:128-f80:128-n8:16:32:64-S128"
target triple = "x86_64-pc-linux-gnu"

%struct.record_functions_st = type { ptr, ptr, ptr, ptr, ptr, ptr, ptr, ptr, ptr, ptr, ptr, ptr, ptr, ptr, ptr, ptr, ptr, ptr }
%struct.tls_buffer_st = type { ptr, i64, i64, i64, i64, i32, i32 }
%struct.tls_rl_record_st = type { i32, i32, i64, i64, i64, ptr, ptr, ptr, i16, [8 x i8] }
%struct.ossl_record_layer_st = type { ptr, ptr, i32, i32, i32, i32, i32, ptr, i16, ptr, ptr, ptr, i64, i32, [33 x %struct.tls_buffer_st], i64, i64, %struct.tls_buffer_st, [32 x %struct.tls_rl_record_st], i64, i64, i64, i32, ptr, i64, [8 x i8], i32, i32, i64, i32, ptr, ptr, i64, ptr, ptr, i32, i32, i32, i64, i64, i64, [64 x i8], i32, i32, i32, ptr, ptr, i32, i32, i64, ptr, ptr, %struct.dtls_bitmap_st, %struct.dtls_bitmap_st, i32, ptr, ptr, ptr, ptr, ptr, i64, ptr }
%struct.dtls_bitmap_st = type { i64, [8 x i8] }

@.str = private unnamed_addr constant [43 x i8] c"../openssl/ssl/record/methods/tls_common.c\00", align 1
@__func__.tls_write_records = private unnamed_addr constant [18 x i8] c"tls_write_records\00", align 1

; Function Attrs: nounwind uwtable
define i32 @tls_write_records(ptr noundef %0, ptr noundef %1, i64 noundef %2) #0 {
  %4 = alloca i32, align 4
  %5 = alloca ptr, align 8
  %6 = alloca ptr, align 8
  %7 = alloca i64, align 8
  store ptr %0, ptr %5, align 8, !tbaa !16
  store ptr %1, ptr %6, align 8, !tbaa !155
  store i64 %2, ptr %7, align 8, !tbaa !38
  %8 = load ptr, ptr %5, align 8, !tbaa !16
  %9 = getelementptr inbounds nuw %struct.ossl_record_layer_st, ptr %8, i32 0, i32 15
  %10 = load i64, ptr %9, align 8, !tbaa !176
  %11 = load ptr, ptr %5, align 8, !tbaa !16
  %12 = getelementptr inbounds nuw %struct.ossl_record_layer_st, ptr %11, i32 0, i32 16
  %13 = load i64, ptr %12, align 8, !tbaa !49
  %14 = icmp uge i64 %10, %13
  br i1 %14, label %25, label %15

15:                                               ; preds = %3
  %16 = load ptr, ptr %5, align 8, !tbaa !16
  %17 = getelementptr inbounds nuw %struct.ossl_record_layer_st, ptr %16, i32 0, i32 14
  %18 = load ptr, ptr %5, align 8, !tbaa !16
  %19 = getelementptr inbounds nuw %struct.ossl_record_layer_st, ptr %18, i32 0, i32 15
  %20 = load i64, ptr %19, align 8, !tbaa !176
  %21 = getelementptr inbounds nuw [33 x %struct.tls_buffer_st], ptr %17, i64 0, i64 %20
  %22 = getelementptr inbounds nuw %struct.tls_buffer_st, ptr %21, i32 0, i32 4
  %23 = load i64, ptr %22, align 8, !tbaa !60
  %24 = icmp eq i64 %23, 0
  br label %25

25:                                               ; preds = %15, %3
  %26 = phi i1 [ true, %3 ], [ %24, %15 ]
  %27 = zext i1 %26 to i32
  %28 = icmp ne i32 %27, 0
  %29 = xor i1 %28, true
  %30 = xor i1 %29, true
  %31 = zext i1 %30 to i32
  %32 = sext i32 %31 to i64
  %33 = call i64 @llvm.expect.i64(i64 %32, i64 1)
  %34 = icmp ne i64 %33, 0
  br i1 %34, label %37, label %35

35:                                               ; preds = %25
  call void @ERR_new()
  call void @ERR_set_debug(ptr noundef @.str, i32 noundef 1892, ptr noundef @__func__.tls_write_records)
  %36 = load ptr, ptr %5, align 8, !tbaa !16
  call void (ptr, i32, i32, ptr, ...) @ossl_rlayer_fatal(ptr noundef %36, i32 noundef 80, i32 noundef 786689, ptr noundef null)
  store i32 -2, ptr %4, align 4
  br label %54

37:                                               ; preds = %25
  %38 = load ptr, ptr %5, align 8, !tbaa !16
  %39 = getelementptr inbounds nuw %struct.ossl_record_layer_st, ptr %38, i32 0, i32 61
  %40 = load ptr, ptr %39, align 8, !tbaa !73
  %41 = getelementptr inbounds nuw %struct.record_functions_st, ptr %40, i32 0, i32 9
  %42 = load ptr, ptr %41, align 8, !tbaa !177
  %43 = load ptr, ptr %5, align 8, !tbaa !16
  %44 = load ptr, ptr %6, align 8, !tbaa !155
  %45 = load i64, ptr %7, align 8, !tbaa !38
  %46 = call i32 %42(ptr noundef %43, ptr noundef %44, i64 noundef %45)
  %47 = icmp ne i32 %46, 0
  br i1 %47, label %49, label %48

48:                                               ; preds = %37
  store i32 -2, ptr %4, align 4
  br label %54

49:                                               ; preds = %37
  %50 = load ptr, ptr %5, align 8, !tbaa !16
  %51 = getelementptr inbounds nuw %struct.ossl_record_layer_st, ptr %50, i32 0, i32 15
  store i64 0, ptr %51, align 8, !tbaa !176
  %52 = load ptr, ptr %5, align 8, !tbaa !16
  %53 = call i32 @tls_retry_write_records(ptr noundef %52)
  store i32 %53, ptr %4, align 4
  br label %54

54:                                               ; preds = %49, %48, %35
  %55 = load i32, ptr %4, align 4
  ret i32 %55
}