; Function Attrs: nounwind uwtable
define i32 @tls_write_records(ptr noundef %0, ptr noundef %1, i64 noundef %2) #0 {
  %4 = getelementptr inbounds nuw i8, ptr %0, i64 1680
  %5 = load i64, ptr %4, align 8, !tbaa !144
  %6 = getelementptr inbounds nuw i8, ptr %0, i64 1688
  %7 = load i64, ptr %6, align 8, !tbaa !38
  %.not = icmp ult i64 %5, %7
  br i1 %.not, label %8, label %.critedge

8:                                                ; preds = %3
  %.idx = mul nuw nsw i64 %5, 48
  %9 = getelementptr i8, ptr %0, i64 128
  %10 = getelementptr i8, ptr %9, i64 %.idx
  %11 = load i64, ptr %10, align 8, !tbaa !45
  %12 = icmp eq i64 %11, 0
  br i1 %12, label %.critedge, label %13, !prof !76

13:                                               ; preds = %8
  tail call void @ERR_new() #13
  tail call void @ERR_set_debug(ptr noundef nonnull @.str, i32 noundef 1892, ptr noundef nonnull @__func__.tls_write_records) #13
  tail call void (ptr, i32, i32, ptr, ...) @ossl_rlayer_fatal(ptr noundef nonnull %0, i32 noundef 80, i32 noundef 786689, ptr noundef null)
  br label %21

.critedge:                                        ; preds = %3, %8
  %14 = getelementptr inbounds nuw i8, ptr %0, i64 4424
  %15 = load ptr, ptr %14, align 8, !tbaa !56
  %16 = getelementptr inbounds nuw i8, ptr %15, i64 72
  %17 = load ptr, ptr %16, align 8, !tbaa !145
  %18 = tail call i32 %17(ptr noundef nonnull %0, ptr noundef %1, i64 noundef %2) #13
  %.not12 = icmp eq i32 %18, 0
  br i1 %.not12, label %21, label %19

19:                                               ; preds = %.critedge
  store i64 0, ptr %4, align 8, !tbaa !144
  %20 = tail call i32 @tls_retry_write_records(ptr noundef nonnull %0)
  br label %21

21:                                               ; preds = %.critedge, %19, %13
  %.0 = phi i32 [ %20, %19 ], [ -2, %13 ], [ -2, %.critedge ]
  ret i32 %.0
}